; Function Attrs: mustprogress uwtable
define hidden void @_ZN19OpenColorIO_v2_4dev9LogOpDataC2EdRA3_KdS3_S3_S3_NS_18TransformDirectionE(ptr noundef nonnull align 8 dereferenceable(252) %this, double noundef %base, ptr nocapture noundef nonnull readonly align 8 dereferenceable(24) %logSlope, ptr nocapture noundef nonnull readonly align 8 dereferenceable(24) %logOffset, ptr nocapture noundef nonnull readonly align 8 dereferenceable(24) %linSlope, ptr nocapture noundef nonnull readonly align 8 dereferenceable(24) %linOffset, i32 noundef %direction) unnamed_addr #3 align 2 personality ptr @__gxx_personality_v0 {
entry:
  tail call void @_ZN19OpenColorIO_v2_4dev6OpDataC2Ev(ptr noundef nonnull align 8 dereferenceable(168) %this)
  store ptr getelementptr inbounds ({ [13 x ptr] }, ptr @_ZTVN19OpenColorIO_v2_4dev9LogOpDataE, i64 0, i32 0, i64 2), ptr %this, align 8
  %m_redParams = getelementptr inbounds i8, ptr %this, i64 168
  %m_greenParams = getelementptr inbounds i8, ptr %this, i64 192
  %m_base = getelementptr inbounds i8, ptr %this, i64 240
  tail call void @llvm.memset.p0.i64(ptr noundef nonnull align 8 dereferenceable(72) %m_redParams, i8 0, i64 72, i1 false)
  store double %base, ptr %m_base, align 8
  %m_direction = getelementptr inbounds i8, ptr %this, i64 248
  store i32 %direction, ptr %m_direction, align 8
  invoke void @_ZN19OpenColorIO_v2_4dev9LogOpData13setParametersERA3_KdS3_S3_S3_(ptr noundef nonnull align 8 dereferenceable(252) %this, ptr noundef nonnull align 8 dereferenceable(24) %logSlope, ptr noundef nonnull align 8 dereferenceable(24) %logOffset, ptr noundef nonnull align 8 dereferenceable(24) %linSlope, ptr noundef nonnull align 8 dereferenceable(24) %linOffset)
          to label %invoke.cont unwind label %lpad

invoke.cont:                                      ; preds = %entry
  ret void

lpad:                                             ; preds = %entry
  %0 = landingpad { ptr, i32 }
          cleanup
  %m_blueParams = getelementptr inbounds i8, ptr %this, i64 216
  %1 = load ptr, ptr %m_blueParams, align 8
  %tobool.not.i.i.i = icmp eq ptr %1, null
  br i1 %tobool.not.i.i.i, label %_ZNSt6vectorIdSaIdEED2Ev.exit, label %if.then.i.i.i

if.then.i.i.i:                                    ; preds = %lpad
  tail call void @_ZdlPv(ptr noundef nonnull %1) #21
  br label %_ZNSt6vectorIdSaIdEED2Ev.exit

_ZNSt6vectorIdSaIdEED2Ev.exit:                    ; preds = %lpad, %if.then.i.i.i
  %2 = load ptr, ptr %m_greenParams, align 8
  %tobool.not.i.i.i1 = icmp eq ptr %2, null
  br i1 %tobool.not.i.i.i1, label %_ZNSt6vectorIdSaIdEED2Ev.exit3, label %if.then.i.i.i2

if.then.i.i.i2:                                   ; preds = %_ZNSt6vectorIdSaIdEED2Ev.exit
  tail call void @_ZdlPv(ptr noundef nonnull %2) #21
  br label %_ZNSt6vectorIdSaIdEED2Ev.exit3

_ZNSt6vectorIdSaIdEED2Ev.exit3:                   ; preds = %_ZNSt6vectorIdSaIdEED2Ev.exit, %if.then.i.i.i2
  %3 = load ptr, ptr %m_redParams, align 8
  %tobool.not.i.i.i4 = icmp eq ptr %3, null
  br i1 %tobool.not.i.i.i4, label %_ZNSt6vectorIdSaIdEED2Ev.exit6, label %if.then.i.i.i5

if.then.i.i.i5:                                   ; preds = %_ZNSt6vectorIdSaIdEED2Ev.exit3
  tail call void @_ZdlPv(ptr noundef nonnull %3) #21
  br label %_ZNSt6vectorIdSaIdEED2Ev.exit6

_ZNSt6vectorIdSaIdEED2Ev.exit6:                   ; preds = %_ZNSt6vectorIdSaIdEED2Ev.exit3, %if.then.i.i.i5
  store ptr getelementptr inbounds ({ [13 x ptr] }, ptr @_ZTVN19OpenColorIO_v2_4dev6OpDataE, i64 0, i32 0, i64 2), ptr %this, align 8
  %m_metadata.i = getelementptr inbounds i8, ptr %this, i64 48
  tail call void @_ZN19OpenColorIO_v2_4dev18FormatMetadataImplD1Ev(ptr noundef nonnull align 8 dereferenceable(120) %m_metadata.i) #22
  resume { ptr, i32 } %0
}